target datalayout = "e-m:e-p270:32:32-p271:32:32-p272:64:64-i64:64-i128:128-f80:128-n8:16:32:64-S128"
target triple = "x86_64-pc-linux-gnu"

@s_vTtMem = internal global ptr null, align 8
@s_nCalls = internal global i32 0, align 4
@s_Truths6 = internal global [6 x i64] [i64 -6148914691236517206, i64 -3689348814741910324, i64 -1085102592571150096, i64 -71777214294589696, i64 -281470681808896, i64 -4294967296], align 16

; Function Attrs: inlinehint nounwind uwtable
define internal i64 @Abc_Tt6Flip(i64 noundef %0, i32 noundef %1) #2 {
  %3 = alloca i64, align 8
  %4 = alloca i32, align 4
  store i64 %0, ptr %3, align 8, !tbaa !10
  store i32 %1, ptr %4, align 4, !tbaa !8
  %5 = load i64, ptr %3, align 8, !tbaa !10
  %6 = load i32, ptr %4, align 4, !tbaa !8
  %7 = shl i32 1, %6
  %8 = zext i32 %7 to i64
  %9 = shl i64 %5, %8
  %10 = load i32, ptr %4, align 4, !tbaa !8
  %11 = sext i32 %10 to i64
  %12 = getelementptr inbounds [6 x i64], ptr @s_Truths6, i64 0, i64 %11
  %13 = load i64, ptr %12, align 8, !tbaa !10
  %14 = and i64 %9, %13
  %15 = load i64, ptr %3, align 8, !tbaa !10
  %16 = load i32, ptr %4, align 4, !tbaa !8
  %17 = sext i32 %16 to i64
  %18 = getelementptr inbounds [6 x i64], ptr @s_Truths6, i64 0, i64 %17
  %19 = load i64, ptr %18, align 8, !tbaa !10
  %20 = and i64 %15, %19
  %21 = load i32, ptr %4, align 4, !tbaa !8
  %22 = shl i32 1, %21
  %23 = zext i32 %22 to i64
  %24 = lshr i64 %20, %23
  %25 = or i64 %14, %24
  store i64 %25, ptr %3, align 8, !tbaa !10
  ret i64 %25
}

; Function Attrs: nounwind uwtable
define i32 @Mf_ManTruthCanonicize(ptr noundef %0, i32 noundef %1) #0 {
  %3 = alloca ptr, align 8
  %4 = alloca i32, align 4
  %5 = alloca i64, align 8
  %6 = alloca i64, align 8
  %7 = alloca i32, align 4
  %8 = alloca i32, align 4
  %9 = alloca i32, align 4
  store ptr %0, ptr %3, align 8, !tbaa !3
  store i32 %1, ptr %4, align 4, !tbaa !8
  call void @llvm.lifetime.start.p0(i64 8, ptr %5) #14
  call void @llvm.lifetime.start.p0(i64 8, ptr %6) #14
  %10 = load ptr, ptr %3, align 8, !tbaa !3
  %11 = load i64, ptr %10, align 8, !tbaa !10
  store i64 %11, ptr %6, align 8, !tbaa !10
  call void @llvm.lifetime.start.p0(i64 4, ptr %7) #14
  call void @llvm.lifetime.start.p0(i64 4, ptr %8) #14
  call void @llvm.lifetime.start.p0(i64 4, ptr %9) #14
  store i32 0, ptr %9, align 4, !tbaa !8
  store i32 0, ptr %7, align 4, !tbaa !8
  br label %12

12:                                               ; preds = %48, %2
  %13 = load i32, ptr %7, align 4, !tbaa !8
  %14 = icmp slt i32 %13, 1
  br i1 %14, label %15, label %51

15:                                               ; preds = %12
  %16 = load i64, ptr %6, align 8, !tbaa !10
  %17 = load i64, ptr %6, align 8, !tbaa !10
  %18 = xor i64 %17, -1
  store i64 %18, ptr %5, align 8, !tbaa !10
  %19 = icmp ugt i64 %16, %18
  br i1 %19, label %20, label %26

20:                                               ; preds = %15
  %21 = load i64, ptr %5, align 8, !tbaa !10
  store i64 %21, ptr %6, align 8, !tbaa !10
  %22 = load i32, ptr %4, align 4, !tbaa !8
  %23 = shl i32 1, %22
  %24 = load i32, ptr %9, align 4, !tbaa !8
  %25 = xor i32 %24, %23
  store i32 %25, ptr %9, align 4, !tbaa !8
  br label %26

26:                                               ; preds = %20, %15
  store i32 0, ptr %8, align 4, !tbaa !8
  br label %27

27:                                               ; preds = %44, %26
  %28 = load i32, ptr %8, align 4, !tbaa !8
  %29 = load i32, ptr %4, align 4, !tbaa !8
  %30 = icmp slt i32 %28, %29
  br i1 %30, label %31, label %47

31:                                               ; preds = %27
  %32 = load i64, ptr %6, align 8, !tbaa !10
  %33 = load i64, ptr %6, align 8, !tbaa !10
  %34 = load i32, ptr %8, align 4, !tbaa !8
  %35 = call i64 @Abc_Tt6Flip(i64 noundef %33, i32 noundef %34)
  store i64 %35, ptr %5, align 8, !tbaa !10
  %36 = icmp ugt i64 %32, %35
  br i1 %36, label %37, label %43

37:                                               ; preds = %31
  %38 = load i64, ptr %5, align 8, !tbaa !10
  store i64 %38, ptr %6, align 8, !tbaa !10
  %39 = load i32, ptr %8, align 4, !tbaa !8
  %40 = shl i32 1, %39
  %41 = load i32, ptr %9, align 4, !tbaa !8
  %42 = xor i32 %41, %40
  store i32 %42, ptr %9, align 4, !tbaa !8
  br label %43

43:                                               ; preds = %37, %31
  br label %44

44:                                               ; preds = %43
  %45 = load i32, ptr %8, align 4, !tbaa !8
  %46 = add nsw i32 %45, 1
  store i32 %46, ptr %8, align 4, !tbaa !8
  br label %27, !llvm.loop !12

47:                                               ; preds = %27
  br label %48

48:                                               ; preds = %47
  %49 = load i32, ptr %7, align 4, !tbaa !8
  %50 = add nsw i32 %49, 1
  store i32 %50, ptr %7, align 4, !tbaa !8
  br label %12, !llvm.loop !14

51:                                               ; preds = %12
  %52 = load i64, ptr %6, align 8, !tbaa !10
  %53 = load ptr, ptr %3, align 8, !tbaa !3
  store i64 %52, ptr %53, align 8, !tbaa !10
  %54 = load ptr, ptr @s_vTtMem, align 8, !tbaa !15
  %55 = icmp eq ptr %54, null
  br i1 %55, label %56, label %58

56:                                               ; preds = %51
  %57 = call ptr @Vec_MemAllocForTT(i32 noundef 6, i32 noundef 0)
  store ptr %57, ptr @s_vTtMem, align 8, !tbaa !15
  br label %58

58:                                               ; preds = %56, %51
  %59 = load ptr, ptr @s_vTtMem, align 8, !tbaa !15
  %60 = load ptr, ptr %3, align 8, !tbaa !3
  %61 = call i32 @Vec_MemHashInsert(ptr noundef %59, ptr noundef %60)
  %62 = load i32, ptr @s_nCalls, align 4, !tbaa !8
  %63 = add nsw i32 %62, 1
  store i32 %63, ptr @s_nCalls, align 4, !tbaa !8
  %64 = load i32, ptr %9, align 4, !tbaa !8
  call void @llvm.lifetime.end.p0(i64 4, ptr %9) #14
  call void @llvm.lifetime.end.p0(i64 4, ptr %8) #14
  call void @llvm.lifetime.end.p0(i64 4, ptr %7) #14
  call void @llvm.lifetime.end.p0(i64 8, ptr %6) #14
  call void @llvm.lifetime.end.p0(i64 8, ptr %5) #14
  ret i32 %64
}