; Function Attrs: nounwind uwtable
define i32 @Mf_ManTruthCanonicize(ptr noundef captures(none) %0, i32 noundef %1) local_unnamed_addr #0 {
  %3 = load i64, ptr %0, align 8, !tbaa !3
  %4 = shl nuw i32 1, %1
  %5 = icmp sgt i32 %1, 0
  %6 = xor i64 %3, -1
  %7 = icmp ugt i64 %3, %6
  %.123.us = tail call i64 @llvm.umin.i64(i64 %3, i64 %6)
  %8 = select i1 %7, i32 %4, i32 0
  br i1 %5, label %.lr.ph.us, label %..loopexit_crit_edge.us

.lr.ph.us:                                        ; preds = %2
  %wide.trip.count = zext nneg i32 %1 to i64
  br label %9

9:                                                ; preds = %.lr.ph.us, %9
  %indvars.iv = phi i64 [ 0, %.lr.ph.us ], [ %indvars.iv.next, %9 ]
  %.230.us = phi i32 [ %8, %.lr.ph.us ], [ %.3.us, %9 ]
  %.22428.us = phi i64 [ %.123.us, %.lr.ph.us ], [ %.325.us, %9 ]
  %10 = trunc nuw nsw i64 %indvars.iv to i32
  %11 = shl nuw i32 1, %10
  %12 = zext i32 %11 to i64
  %13 = shl i64 %.22428.us, %12
  %14 = getelementptr inbounds nuw [6 x i64], ptr @s_Truths6, i64 0, i64 %indvars.iv
  %15 = load i64, ptr %14, align 8, !tbaa !3
  %16 = and i64 %15, %13
  %17 = and i64 %15, %.22428.us
  %18 = lshr i64 %17, %12
  %19 = or i64 %18, %16
  %20 = icmp ugt i64 %.22428.us, %19
  %.325.us = tail call i64 @llvm.umin.i64(i64 %.22428.us, i64 %19)
  %21 = select i1 %20, i32 %11, i32 0
  %.3.us = xor i32 %21, %.230.us
  %indvars.iv.next = add nuw nsw i64 %indvars.iv, 1
  %exitcond.not = icmp eq i64 %indvars.iv.next, %wide.trip.count
  br i1 %exitcond.not, label %..loopexit_crit_edge.us, label %9, !llvm.loop !7

..loopexit_crit_edge.us:                          ; preds = %9, %2
  %.us-phi = phi i64 [ %.123.us, %2 ], [ %.325.us, %9 ]
  %.us-phi36 = phi i32 [ %8, %2 ], [ %.3.us, %9 ]
  store i64 %.us-phi, ptr %0, align 8, !tbaa !3
  %22 = load ptr, ptr @s_vTtMem, align 8, !tbaa !9
  %23 = icmp eq ptr %22, null
  br i1 %23, label %24, label %26

24:                                               ; preds = %..loopexit_crit_edge.us
  %25 = tail call fastcc ptr @Vec_MemAllocForTT(i32 noundef 6)
  store ptr %25, ptr @s_vTtMem, align 8, !tbaa !9
  br label %26

26:                                               ; preds = %24, %..loopexit_crit_edge.us
  %27 = phi ptr [ %25, %24 ], [ %22, %..loopexit_crit_edge.us ]
  %28 = tail call fastcc i32 @Vec_MemHashInsert(ptr noundef %27, ptr noundef nonnull %0)
  %29 = load i32, ptr @s_nCalls, align 4, !tbaa !12
  %30 = add nsw i32 %29, 1
  store i32 %30, ptr @s_nCalls, align 4, !tbaa !12
  ret i32 %.us-phi36
}